target datalayout = "e-m:e-p270:32:32-p271:32:32-p272:64:64-i64:64-i128:128-f80:128-n8:16:32:64-S128"
target triple = "x86_64-pc-linux-gnu"

@.str.29 = private unnamed_addr constant [135 x i8] c"subgraph clusterLegend {\0A  label = \22Legend\22;\0A  color = black;\0A  edge [ style = invis ];\0A  legendNode0 [ label = \22Executable\22, shape = \00", align 1
@.str.30 = private unnamed_addr constant [4 x i8] c"egg\00", align 1
@.str.31 = private unnamed_addr constant [55 x i8] c" ];\0A  legendNode1 [ label = \22Static Library\22, shape = \00", align 1
@.str.32 = private unnamed_addr constant [8 x i8] c"octagon\00", align 1
@.str.33 = private unnamed_addr constant [55 x i8] c" ];\0A  legendNode2 [ label = \22Shared Library\22, shape = \00", align 1
@.str.34 = private unnamed_addr constant [14 x i8] c"doubleoctagon\00", align 1
@.str.35 = private unnamed_addr constant [55 x i8] c" ];\0A  legendNode3 [ label = \22Module Library\22, shape = \00", align 1
@.str.36 = private unnamed_addr constant [14 x i8] c"tripleoctagon\00", align 1
@.str.37 = private unnamed_addr constant [58 x i8] c" ];\0A  legendNode4 [ label = \22Interface Library\22, shape = \00", align 1
@.str.38 = private unnamed_addr constant [9 x i8] c"pentagon\00", align 1
@.str.39 = private unnamed_addr constant [55 x i8] c" ];\0A  legendNode5 [ label = \22Object Library\22, shape = \00", align 1
@.str.40 = private unnamed_addr constant [8 x i8] c"hexagon\00", align 1
@.str.41 = private unnamed_addr constant [56 x i8] c" ];\0A  legendNode6 [ label = \22Unknown Library\22, shape = \00", align 1
@.str.42 = private unnamed_addr constant [9 x i8] c"septagon\00", align 1
@.str.43 = private unnamed_addr constant [54 x i8] c" ];\0A  legendNode7 [ label = \22Custom Target\22, shape = \00", align 1
@.str.44 = private unnamed_addr constant [4 x i8] c"box\00", align 1
@.str.45 = private unnamed_addr constant [44 x i8] c" ];\0A  legendNode0 -> legendNode1 [ style = \00", align 1
@.str.46 = private unnamed_addr constant [6 x i8] c"solid\00", align 1
@.str.47 = private unnamed_addr constant [44 x i8] c" ];\0A  legendNode0 -> legendNode2 [ style = \00", align 1
@.str.48 = private unnamed_addr constant [95 x i8] c" ];\0A  legendNode0 -> legendNode3;\0A  legendNode1 -> legendNode4 [ label = \22Interface\22, style = \00", align 1
@.str.49 = private unnamed_addr constant [7 x i8] c"dashed\00", align 1
@.str.50 = private unnamed_addr constant [63 x i8] c" ];\0A  legendNode2 -> legendNode5 [ label = \22Private\22, style = \00", align 1
@.str.51 = private unnamed_addr constant [7 x i8] c"dotted\00", align 1
@.str.52 = private unnamed_addr constant [44 x i8] c" ];\0A  legendNode3 -> legendNode6 [ style = \00", align 1
@.str.53 = private unnamed_addr constant [37 x i8] c" ];\0A  legendNode0 -> legendNode7;\0A}\0A\00", align 1

; Function Attrs: mustprogress uwtable
define dso_local void @_ZN16cmGraphVizWriter11WriteLegendER21cmGeneratedFileStream(ptr noundef nonnull align 8 dereferenceable(1043) %0, ptr noundef nonnull align 8 dereferenceable(348) %1) #4 align 2 {
  %3 = alloca ptr, align 8
  %4 = alloca ptr, align 8
  store ptr %0, ptr %3, align 8
  store ptr %1, ptr %4, align 8
  %5 = load ptr, ptr %4, align 8
  %6 = call noundef nonnull align 8 dereferenceable(8) ptr @_ZStlsISt11char_traitsIcEERSt13basic_ostreamIcT_ES5_PKc(ptr noundef nonnull align 8 dereferenceable(8) %5, ptr noundef @.str.29)
  %7 = call noundef nonnull align 8 dereferenceable(8) ptr @_ZStlsISt11char_traitsIcEERSt13basic_ostreamIcT_ES5_PKc(ptr noundef nonnull align 8 dereferenceable(8) %6, ptr noundef @.str.30)
  %8 = call noundef nonnull align 8 dereferenceable(8) ptr @_ZStlsISt11char_traitsIcEERSt13basic_ostreamIcT_ES5_PKc(ptr noundef nonnull align 8 dereferenceable(8) %7, ptr noundef @.str.31)
  %9 = call noundef nonnull align 8 dereferenceable(8) ptr @_ZStlsISt11char_traitsIcEERSt13basic_ostreamIcT_ES5_PKc(ptr noundef nonnull align 8 dereferenceable(8) %8, ptr noundef @.str.32)
  %10 = call noundef nonnull align 8 dereferenceable(8) ptr @_ZStlsISt11char_traitsIcEERSt13basic_ostreamIcT_ES5_PKc(ptr noundef nonnull align 8 dereferenceable(8) %9, ptr noundef @.str.33)
  %11 = call noundef nonnull align 8 dereferenceable(8) ptr @_ZStlsISt11char_traitsIcEERSt13basic_ostreamIcT_ES5_PKc(ptr noundef nonnull align 8 dereferenceable(8) %10, ptr noundef @.str.34)
  %12 = call noundef nonnull align 8 dereferenceable(8) ptr @_ZStlsISt11char_traitsIcEERSt13basic_ostreamIcT_ES5_PKc(ptr noundef nonnull align 8 dereferenceable(8) %11, ptr noundef @.str.35)
  %13 = call noundef nonnull align 8 dereferenceable(8) ptr @_ZStlsISt11char_traitsIcEERSt13basic_ostreamIcT_ES5_PKc(ptr noundef nonnull align 8 dereferenceable(8) %12, ptr noundef @.str.36)
  %14 = call noundef nonnull align 8 dereferenceable(8) ptr @_ZStlsISt11char_traitsIcEERSt13basic_ostreamIcT_ES5_PKc(ptr noundef nonnull align 8 dereferenceable(8) %13, ptr noundef @.str.37)
  %15 = call noundef nonnull align 8 dereferenceable(8) ptr @_ZStlsISt11char_traitsIcEERSt13basic_ostreamIcT_ES5_PKc(ptr noundef nonnull align 8 dereferenceable(8) %14, ptr noundef @.str.38)
  %16 = call noundef nonnull align 8 dereferenceable(8) ptr @_ZStlsISt11char_traitsIcEERSt13basic_ostreamIcT_ES5_PKc(ptr noundef nonnull align 8 dereferenceable(8) %15, ptr noundef @.str.39)
  %17 = call noundef nonnull align 8 dereferenceable(8) ptr @_ZStlsISt11char_traitsIcEERSt13basic_ostreamIcT_ES5_PKc(ptr noundef nonnull align 8 dereferenceable(8) %16, ptr noundef @.str.40)
  %18 = call noundef nonnull align 8 dereferenceable(8) ptr @_ZStlsISt11char_traitsIcEERSt13basic_ostreamIcT_ES5_PKc(ptr noundef nonnull align 8 dereferenceable(8) %17, ptr noundef @.str.41)
  %19 = call noundef nonnull align 8 dereferenceable(8) ptr @_ZStlsISt11char_traitsIcEERSt13basic_ostreamIcT_ES5_PKc(ptr noundef nonnull align 8 dereferenceable(8) %18, ptr noundef @.str.42)
  %20 = call noundef nonnull align 8 dereferenceable(8) ptr @_ZStlsISt11char_traitsIcEERSt13basic_ostreamIcT_ES5_PKc(ptr noundef nonnull align 8 dereferenceable(8) %19, ptr noundef @.str.43)
  %21 = call noundef nonnull align 8 dereferenceable(8) ptr @_ZStlsISt11char_traitsIcEERSt13basic_ostreamIcT_ES5_PKc(ptr noundef nonnull align 8 dereferenceable(8) %20, ptr noundef @.str.44)
  %22 = call noundef nonnull align 8 dereferenceable(8) ptr @_ZStlsISt11char_traitsIcEERSt13basic_ostreamIcT_ES5_PKc(ptr noundef nonnull align 8 dereferenceable(8) %21, ptr noundef @.str.45)
  %23 = call noundef nonnull align 8 dereferenceable(8) ptr @_ZStlsISt11char_traitsIcEERSt13basic_ostreamIcT_ES5_PKc(ptr noundef nonnull align 8 dereferenceable(8) %22, ptr noundef @.str.46)
  %24 = call noundef nonnull align 8 dereferenceable(8) ptr @_ZStlsISt11char_traitsIcEERSt13basic_ostreamIcT_ES5_PKc(ptr noundef nonnull align 8 dereferenceable(8) %23, ptr noundef @.str.47)
  %25 = call noundef nonnull align 8 dereferenceable(8) ptr @_ZStlsISt11char_traitsIcEERSt13basic_ostreamIcT_ES5_PKc(ptr noundef nonnull align 8 dereferenceable(8) %24, ptr noundef @.str.46)
  %26 = call noundef nonnull align 8 dereferenceable(8) ptr @_ZStlsISt11char_traitsIcEERSt13basic_ostreamIcT_ES5_PKc(ptr noundef nonnull align 8 dereferenceable(8) %25, ptr noundef @.str.48)
  %27 = call noundef nonnull align 8 dereferenceable(8) ptr @_ZStlsISt11char_traitsIcEERSt13basic_ostreamIcT_ES5_PKc(ptr noundef nonnull align 8 dereferenceable(8) %26, ptr noundef @.str.49)
  %28 = call noundef nonnull align 8 dereferenceable(8) ptr @_ZStlsISt11char_traitsIcEERSt13basic_ostreamIcT_ES5_PKc(ptr noundef nonnull align 8 dereferenceable(8) %27, ptr noundef @.str.50)
  %29 = call noundef nonnull align 8 dereferenceable(8) ptr @_ZStlsISt11char_traitsIcEERSt13basic_ostreamIcT_ES5_PKc(ptr noundef nonnull align 8 dereferenceable(8) %28, ptr noundef @.str.51)
  %30 = call noundef nonnull align 8 dereferenceable(8) ptr @_ZStlsISt11char_traitsIcEERSt13basic_ostreamIcT_ES5_PKc(ptr noundef nonnull align 8 dereferenceable(8) %29, ptr noundef @.str.52)
  %31 = call noundef nonnull align 8 dereferenceable(8) ptr @_ZStlsISt11char_traitsIcEERSt13basic_ostreamIcT_ES5_PKc(ptr noundef nonnull align 8 dereferenceable(8) %30, ptr noundef @.str.46)
  %32 = call noundef nonnull align 8 dereferenceable(8) ptr @_ZStlsISt11char_traitsIcEERSt13basic_ostreamIcT_ES5_PKc(ptr noundef nonnull align 8 dereferenceable(8) %31, ptr noundef @.str.53)
  ret void
}